target datalayout = "e-m:e-p270:32:32-p271:32:32-p272:64:64-i64:64-i128:128-f80:128-n8:16:32:64-S128"
target triple = "x86_64-pc-linux-gnu"

%struct._psqlSettings = type { ptr, i32, ptr, i8, ptr, ptr, %struct.printQueryOpt, ptr, ptr, ptr, i8, i8, i32, i32, ptr, ptr, i8, [4 x ptr], i8, i32, ptr, i8, i32, ptr, ptr, i64, i64, i8, ptr, ptr, ptr, i8, i8, i8, i8, i8, i8, i8, i32, i32, i32, i32, i32, i32, i32, i32, ptr, ptr, ptr, i32, i8, i32 }
%struct.printQueryOpt = type { %struct.printTableOpt, ptr, ptr, ptr, i8, ptr, i32 }
%struct.printTableOpt = type { i32, i16, i32, i32, i16, i16, i32, i8, i8, i8, i8, i64, ptr, %struct.separator, %struct.separator, [2 x i8], i8, ptr, i32, i32, i32, i32, i32, i32 }
%struct.separator = type { ptr, i8 }

@pset = external global %struct._psqlSettings, align 8
@.str.1 = private unnamed_addr constant [3 x i8] c"%s\00", align 1
@.str.9 = private unnamed_addr constant [11 x i8] c"\\lo_unlink\00", align 1
@.str.10 = private unnamed_addr constant [13 x i8] c"lo_unlink %u\00", align 1
@.str.15 = private unnamed_addr constant [9 x i8] c"ROLLBACK\00", align 1
@.str.16 = private unnamed_addr constant [7 x i8] c"COMMIT\00", align 1

; Function Attrs: nounwind uwtable
define internal zeroext i1 @finish_lo_xact(ptr noundef %0, i1 noundef zeroext %1) #0 {
  %3 = alloca i1, align 1
  %4 = alloca ptr, align 8
  %5 = alloca i8, align 1
  %6 = alloca ptr, align 8
  %7 = alloca i32, align 4
  store ptr %0, ptr %4, align 8
  %8 = zext i1 %1 to i8
  store i8 %8, ptr %5, align 1
  call void @llvm.lifetime.start.p0(i64 8, ptr %6) #6
  %9 = load i8, ptr %5, align 1, !range !4, !noundef !5
  %10 = trunc i8 %9 to i1
  br i1 %10, label %11, label %22

11:                                               ; preds = %2
  %12 = load i8, ptr getelementptr inbounds nuw (%struct._psqlSettings, ptr @pset, i32 0, i32 31), align 8, !range !4, !noundef !5
  %13 = trunc i8 %12 to i1
  br i1 %13, label %14, label %22

14:                                               ; preds = %11
  %15 = call ptr @PSQLexec(ptr noundef @.str.16)
  store ptr %15, ptr %6, align 8
  %16 = icmp ne ptr %15, null
  br i1 %16, label %20, label %17

17:                                               ; preds = %14
  %18 = call ptr @PSQLexec(ptr noundef @.str.15)
  store ptr %18, ptr %6, align 8
  %19 = load ptr, ptr %6, align 8
  call void @PQclear(ptr noundef %19)
  store i1 false, ptr %3, align 1
  store i32 1, ptr %7, align 4
  br label %23

20:                                               ; preds = %14
  %21 = load ptr, ptr %6, align 8
  call void @PQclear(ptr noundef %21)
  br label %22

22:                                               ; preds = %20, %11, %2
  store i1 true, ptr %3, align 1
  store i32 1, ptr %7, align 4
  br label %23

23:                                               ; preds = %22, %17
  call void @llvm.lifetime.end.p0(i64 8, ptr %6) #6
  %24 = load i1, ptr %3, align 1
  ret i1 %24
}

; Function Attrs: nounwind uwtable
define internal zeroext i1 @fail_lo_xact(ptr noundef %0, i1 noundef zeroext %1) #0 {
  %3 = alloca ptr, align 8
  %4 = alloca i8, align 1
  %5 = alloca ptr, align 8
  store ptr %0, ptr %3, align 8
  %6 = zext i1 %1 to i8
  store i8 %6, ptr %4, align 1
  call void @llvm.lifetime.start.p0(i64 8, ptr %5) #6
  %7 = load i8, ptr %4, align 1, !range !4, !noundef !5
  %8 = trunc i8 %7 to i1
  br i1 %8, label %9, label %15

9:                                                ; preds = %2
  %10 = load i8, ptr getelementptr inbounds nuw (%struct._psqlSettings, ptr @pset, i32 0, i32 31), align 8, !range !4, !noundef !5
  %11 = trunc i8 %10 to i1
  br i1 %11, label %12, label %15

12:                                               ; preds = %9
  %13 = call ptr @PSQLexec(ptr noundef @.str.15)
  store ptr %13, ptr %5, align 8
  %14 = load ptr, ptr %5, align 8
  call void @PQclear(ptr noundef %14)
  br label %15

15:                                               ; preds = %12, %9, %2
  call void @llvm.lifetime.end.p0(i64 8, ptr %5) #6
  ret i1 false
}

; Function Attrs: nounwind uwtable
define dso_local zeroext i1 @do_lo_unlink(ptr noundef %0) #0 {
  %2 = alloca i1, align 1
  %3 = alloca ptr, align 8
  %4 = alloca i32, align 4
  %5 = alloca i32, align 4
  %6 = alloca i8, align 1
  %7 = alloca i32, align 4
  store ptr %0, ptr %3, align 8
  call void @llvm.lifetime.start.p0(i64 4, ptr %4) #6
  call void @llvm.lifetime.start.p0(i64 4, ptr %5) #6
  %8 = load ptr, ptr %3, align 8
  %9 = call i64 @strtoul(ptr noundef %8, ptr noundef null, i32 noundef 10) #6
  %10 = trunc i64 %9 to i32
  store i32 %10, ptr %5, align 4
  call void @llvm.lifetime.start.p0(i64 1, ptr %6) #6
  %11 = call zeroext i1 @start_lo_xact(ptr noundef @.str.9, ptr noundef %6)
  br i1 %11, label %13, label %12

12:                                               ; preds = %1
  store i1 false, ptr %2, align 1
  store i32 1, ptr %7, align 4
  br label %32

13:                                               ; preds = %1
  call void @SetCancelConn(ptr noundef null)
  %14 = load ptr, ptr @pset, align 8
  %15 = load i32, ptr %5, align 4
  %16 = call i32 @lo_unlink(ptr noundef %14, i32 noundef %15)
  store i32 %16, ptr %4, align 4
  call void @ResetCancelConn()
  %17 = load i32, ptr %4, align 4
  %18 = icmp eq i32 %17, -1
  br i1 %18, label %19, label %25

19:                                               ; preds = %13
  %20 = load ptr, ptr @pset, align 8
  %21 = call ptr @PQerrorMessage(ptr noundef %20)
  call void (i32, i32, ptr, ...) @pg_log_generic(i32 noundef 2, i32 noundef 0, ptr noundef @.str.1, ptr noundef %21)
  %22 = load i8, ptr %6, align 1, !range !4, !noundef !5
  %23 = trunc i8 %22 to i1
  %24 = call zeroext i1 @fail_lo_xact(ptr noundef @.str.9, i1 noundef zeroext %23)
  store i1 %24, ptr %2, align 1
  store i32 1, ptr %7, align 4
  br label %32

25:                                               ; preds = %13
  %26 = load i8, ptr %6, align 1, !range !4, !noundef !5
  %27 = trunc i8 %26 to i1
  %28 = call zeroext i1 @finish_lo_xact(ptr noundef @.str.9, i1 noundef zeroext %27)
  br i1 %28, label %30, label %29

29:                                               ; preds = %25
  store i1 false, ptr %2, align 1
  store i32 1, ptr %7, align 4
  br label %32

30:                                               ; preds = %25
  %31 = load i32, ptr %5, align 4
  call void (ptr, ...) @print_lo_result(ptr noundef @.str.10, i32 noundef %31)
  store i1 true, ptr %2, align 1
  store i32 1, ptr %7, align 4
  br label %32

32:                                               ; preds = %30, %29, %19, %12
  call void @llvm.lifetime.end.p0(i64 1, ptr %6) #6
  call void @llvm.lifetime.end.p0(i64 4, ptr %5) #6
  call void @llvm.lifetime.end.p0(i64 4, ptr %4) #6
  %33 = load i1, ptr %2, align 1
  ret i1 %33
}